; Function Attrs: mustprogress nounwind uwtable
define dso_local noundef zeroext i1 @_ZN4node6crypto27SafeX509SubjectAltNamePrintERKSt10unique_ptrI6bio_stNS_15FunctionDeleterIS2_XadL_Z12BIO_free_allEEEEEP17X509_extension_st(ptr nocapture noundef nonnull readonly align 8 dereferenceable(8) %out, ptr noundef %ext) local_unnamed_addr #3 {
entry:
  %call = tail call ptr @X509V3_EXT_get(ptr noundef %ext) #17
  %call1 = tail call ptr @X509V3_EXT_get_nid(i32 noundef 85) #17
  %cmp.not = icmp eq ptr %call, %call1
  br i1 %cmp.not, label %do.end5, label %do.body4

do.body4:                                         ; preds = %entry
  tail call void @_ZN4node6AssertERKNS_13AssertionInfoE(ptr noundef nonnull align 8 dereferenceable(24) @_ZZN4node6crypto27SafeX509SubjectAltNamePrintERKSt10unique_ptrI6bio_stNS_15FunctionDeleterIS2_XadL_Z12BIO_free_allEEEEEP17X509_extension_stE4args) #17
  tail call void @abort() #18
  unreachable

do.end5:                                          ; preds = %entry
  %call6 = tail call ptr @X509V3_EXT_d2i(ptr noundef %ext) #17
  %cmp7 = icmp eq ptr %call6, null
  br i1 %cmp7, label %return, label %for.cond.preheader

for.cond.preheader:                               ; preds = %do.end5
  %call119 = tail call i32 @OPENSSL_sk_num(ptr noundef nonnull %call6) #17
  %cmp1210 = icmp slt i32 %call119, 1
  br i1 %cmp1210, label %for.end, label %for.body

for.cond:                                         ; preds = %if.end19
  %inc = add nuw nsw i32 %i.011, 1
  %call11 = tail call i32 @OPENSSL_sk_num(ptr noundef nonnull %call6) #17
  %cmp12.not = icmp slt i32 %inc, %call11
  br i1 %cmp12.not, label %for.body, label %for.end, !llvm.loop !16

for.body:                                         ; preds = %for.cond.preheader, %for.cond
  %i.011 = phi i32 [ %inc, %for.cond ], [ 0, %for.cond.preheader ]
  %call14 = tail call ptr @OPENSSL_sk_value(ptr noundef nonnull %call6, i32 noundef %i.011) #17
  %cmp15.not = icmp eq i32 %i.011, 0
  br i1 %cmp15.not, label %if.end19, label %if.then16

if.then16:                                        ; preds = %for.body
  %0 = load ptr, ptr %out, align 8
  %call18 = tail call i32 @BIO_write(ptr noundef %0, ptr noundef nonnull @.str.39, i32 noundef 2) #17
  br label %if.end19

if.end19:                                         ; preds = %if.then16, %for.body
  %call20 = tail call fastcc noundef zeroext i1 @_ZN4node6cryptoL16PrintGeneralNameERKSt10unique_ptrI6bio_stNS_15FunctionDeleterIS2_XadL_Z12BIO_free_allEEEEEPK15GENERAL_NAME_st(ptr noundef nonnull align 8 dereferenceable(8) %out, ptr noundef %call14)
  br i1 %call20, label %for.cond, label %for.end

for.end:                                          ; preds = %for.cond, %if.end19, %for.cond.preheader
  %cmp12.lcssa = phi i1 [ true, %for.cond.preheader ], [ %call20, %if.end19 ], [ %call20, %for.cond ]
  tail call void @OPENSSL_sk_pop_free(ptr noundef nonnull %call6, ptr noundef nonnull @GENERAL_NAME_free) #17
  br label %return

return:                                           ; preds = %do.end5, %for.end
  %retval.0 = phi i1 [ %cmp12.lcssa, %for.end ], [ false, %do.end5 ]
  ret i1 %retval.0
}